	.syntax unified
	.cpu cortex-m0
	.fpu softvfp
	.eabi_attribute 20, 1
	.eabi_attribute 21, 1
	.eabi_attribute 23, 3
	.eabi_attribute 24, 1
	.eabi_attribute 25, 1
	.eabi_attribute 26, 1
	.eabi_attribute 30, 6
	.eabi_attribute 34, 0
	.eabi_attribute 18, 4
	.thumb
	.syntax unified
	.file	"ECE209-proj.c"
	.text
.Ltext0:
	.cfi_sections	.debug_frame
	.section	.text.get_key,"ax",%progbits
	.align	2
	.global	get_key
	.code	16
	.thumb_func
	.type	get_key, %function
get_key:
.LFB0:
	.file 1 "ECE209-proj.c"
	.loc 1 26 0
	.cfi_startproc
	@ args = 0, pretend = 0, frame = 8
	@ frame_needed = 1, uses_anonymous_args = 0
	push	{r7, lr}
.LCFI0:
	.cfi_def_cfa_offset 8
	.cfi_offset 7, -8
	.cfi_offset 14, -4
	sub	sp, sp, #8
.LCFI1:
	.cfi_def_cfa_offset 16
	add	r7, sp, #0
.LCFI2:
	.cfi_def_cfa_register 7
	str	r0, [r7, #4]
	.loc 1 28 0
	movs	r3, #0
	.loc 1 29 0
	movs	r0, r3
	mov	sp, r7
	add	sp, sp, #8
	@ sp needed
	pop	{r7, pc}
	.cfi_endproc
.LFE0:
	.size	get_key, .-get_key
	.section	.text.delay_2_ms,"ax",%progbits
	.align	2
	.code	16
	.thumb_func
	.type	delay_2_ms, %function
delay_2_ms:
.LFB1:
	.loc 1 32 0
	.cfi_startproc
	@ args = 0, pretend = 0, frame = 8
	@ frame_needed = 1, uses_anonymous_args = 0
	push	{r7, lr}
.LCFI3:
	.cfi_def_cfa_offset 8
	.cfi_offset 7, -8
	.cfi_offset 14, -4
	sub	sp, sp, #8
.LCFI4:
	.cfi_def_cfa_offset 16
	add	r7, sp, #0
.LCFI5:
	.cfi_def_cfa_register 7
.LBB2:
	.loc 1 33 0
	movs	r3, #0
	str	r3, [r7, #4]
	b	.L4
.L5:
	.loc 1 33 0 is_stmt 0 discriminator 3
	ldr	r3, [r7, #4]
	adds	r3, r3, #1
	str	r3, [r7, #4]
.L4:
	.loc 1 33 0 discriminator 1
	ldr	r3, [r7, #4]
	ldr	r2, .L6
	cmp	r3, r2
	bls	.L5
.LBE2:
	.loc 1 36 0 is_stmt 1
	nop
	mov	sp, r7
	add	sp, sp, #8
	@ sp needed
	pop	{r7, pc}
.L7:
	.align	2
.L6:
	.word	4094
	.cfi_endproc
.LFE1:
	.size	delay_2_ms, .-delay_2_ms
	.global	weight
	.data
	.align	2
	.type	weight, %object
	.size	weight, 112
weight:
	.word	1048113351
	.word	1057866266
	.word	1061613457
	.word	1036730883
	.word	1057653732
	.word	1061534587
	.word	1062591837
	.word	1054885743
	.word	1045145865
	.word	1010901621
	.word	1058729957
	.word	1058436389
	.word	1053775091
	.word	1056975278
	.word	1058287944
	.word	1059288471
	.word	1058212967
	.word	1036140459
	.word	1045843193
	.word	1024197497
	.word	1055410132
	.word	1061482729
	.word	1049689168
	.word	1055520257
	.word	1056489813
	.word	1050447331
	.word	1059006714
	.word	1060064736
	.global	imagePixel
	.align	2
	.type	imagePixel, %object
	.size	imagePixel, 112
imagePixel:
	.word	0
	.word	0
	.word	1065353216
	.word	0
	.word	1065353216
	.word	1065353216
	.word	1065353216
	.word	1065353216
	.word	1065353216
	.word	1065353216
	.word	1065353216
	.word	1065353216
	.word	1065353216
	.word	1065353216
	.word	1065353216
	.word	1065353216
	.word	1065353216
	.word	1065353216
	.word	1065353216
	.word	1065353216
	.word	1065353216
	.word	1065353216
	.word	0
	.word	0
	.word	0
	.word	0
	.word	0
	.word	0
	.global	__aeabi_i2f
	.global	__aeabi_fadd
	.global	__aeabi_f2iz
	.section	.text.get_pt,"ax",%progbits
	.align	2
	.global	get_pt
	.code	16
	.thumb_func
	.type	get_pt, %function
get_pt:
.LFB2:
	.loc 1 45 0
	.cfi_startproc
	@ args = 0, pretend = 0, frame = 32
	@ frame_needed = 1, uses_anonymous_args = 0
	push	{r7, lr}
.LCFI6:
	.cfi_def_cfa_offset 8
	.cfi_offset 7, -8
	.cfi_offset 14, -4
	sub	sp, sp, #32
.LCFI7:
	.cfi_def_cfa_offset 40
	add	r7, sp, #0
.LCFI8:
	.cfi_def_cfa_register 7
	str	r0, [r7, #4]
	.loc 1 49 0
	ldr	r3, .L12
	str	r3, [r7, #16]
	.loc 1 51 0
	bl	trigger_high
	.loc 1 138 0
	movs	r3, #0
	str	r3, [r7, #28]
	.loc 1 139 0
	movs	r3, #15
	adds	r3, r7, r3
	movs	r2, #255
	strb	r2, [r3]
	.loc 1 140 0
	movs	r3, #14
	adds	r3, r7, r3
	movs	r2, #170
	strb	r2, [r3]
	.loc 1 141 0
	movs	r3, #15
	adds	r2, r7, r3
	movs	r3, #14
	adds	r3, r7, r3
	ldrb	r2, [r2]
	ldrb	r3, [r3]
	eors	r3, r2
	uxtb	r2, r3
	movs	r3, #27
	adds	r3, r7, r3
	mvns	r2, r2
	strb	r2, [r3]
	.loc 1 150 0
	movs	r3, #0
	str	r3, [r7, #28]
	.loc 1 151 0
	movs	r3, #15
	adds	r3, r7, r3
	movs	r2, #0
	strb	r2, [r3]
	.loc 1 152 0
	movs	r3, #14
	adds	r3, r7, r3
	movs	r2, #170
	strb	r2, [r3]
	.loc 1 153 0
	movs	r3, #15
	adds	r2, r7, r3
	movs	r3, #14
	adds	r3, r7, r3
	ldrb	r2, [r2]
	ldrb	r3, [r3]
	eors	r3, r2
	uxtb	r2, r3
	movs	r3, #27
	adds	r3, r7, r3
	mvns	r2, r2
	strb	r2, [r3]
.LBB3:
	.loc 1 155 0
	movs	r3, #0
	str	r3, [r7, #20]
	b	.L9
.L10:
	.loc 1 156 0 discriminator 3
	movs	r3, #27
	adds	r3, r7, r3
	ldrb	r3, [r3]
	movs	r2, #1
	ands	r3, r2
	movs	r0, r3
	bl	__aeabi_i2f
	adds	r3, r0, #0
	adds	r1, r3, #0
	ldr	r0, [r7, #28]
	bl	__aeabi_fadd
	adds	r3, r0, #0
	str	r3, [r7, #28]
	.loc 1 157 0 discriminator 3
	movs	r3, #27
	adds	r3, r7, r3
	movs	r2, #27
	adds	r2, r7, r2
	ldrb	r2, [r2]
	lsrs	r2, r2, #1
	strb	r2, [r3]
	.loc 1 155 0 discriminator 3
	ldr	r3, [r7, #20]
	adds	r3, r3, #1
	str	r3, [r7, #20]
.L9:
	.loc 1 155 0 is_stmt 0 discriminator 1
	ldr	r3, [r7, #20]
	cmp	r3, #7
	ble	.L10
.LBE3:
	.loc 1 161 0 is_stmt 1
	bl	delay_2_ms
	.loc 1 162 0
	bl	trigger_low
	.loc 1 163 0
	ldr	r0, [r7, #16]
	bl	__aeabi_f2iz
	movs	r3, r0
	uxtb	r2, r3
	ldr	r3, [r7, #4]
	strb	r2, [r3]
	.loc 1 166 0
	ldr	r3, [r7, #4]
	movs	r2, r3
	movs	r1, #16
	movs	r0, #114
	bl	simpleserial_put
	.loc 1 167 0
	movs	r3, #0
	.loc 1 168 0
	movs	r0, r3
	mov	sp, r7
	add	sp, sp, #32
	@ sp needed
	pop	{r7, pc}
.L13:
	.align	2
.L12:
	.word	1057175296
	.cfi_endproc
.LFE2:
	.size	get_pt, .-get_pt
	.section	.text.reset,"ax",%progbits
	.align	2
	.global	reset
	.code	16
	.thumb_func
	.type	reset, %function
reset:
.LFB3:
	.loc 1 171 0
	.cfi_startproc
	@ args = 0, pretend = 0, frame = 8
	@ frame_needed = 1, uses_anonymous_args = 0
	push	{r7, lr}
.LCFI9:
	.cfi_def_cfa_offset 8
	.cfi_offset 7, -8
	.cfi_offset 14, -4
	sub	sp, sp, #8
.LCFI10:
	.cfi_def_cfa_offset 16
	add	r7, sp, #0
.LCFI11:
	.cfi_def_cfa_register 7
	str	r0, [r7, #4]
	.loc 1 173 0
	movs	r3, #0
	.loc 1 174 0
	movs	r0, r3
	mov	sp, r7
	add	sp, sp, #8
	@ sp needed
	pop	{r7, pc}
	.cfi_endproc
.LFE3:
	.size	reset, .-reset
	.section	.text.main,"ax",%progbits
	.align	2
	.global	main
	.code	16
	.thumb_func
	.type	main, %function
main:
.LFB4:
	.loc 1 177 0
	.cfi_startproc
	@ args = 0, pretend = 0, frame = 0
	@ frame_needed = 1, uses_anonymous_args = 0
	push	{r7, lr}
.LCFI12:
	.cfi_def_cfa_offset 8
	.cfi_offset 7, -8
	.cfi_offset 14, -4
	add	r7, sp, #0
.LCFI13:
	.cfi_def_cfa_register 7
	.loc 1 178 0
	bl	platform_init
	.loc 1 179 0
	bl	init_uart
	.loc 1 180 0
	bl	trigger_setup
	.loc 1 192 0
	bl	simpleserial_init
	.loc 1 193 0
	ldr	r3, .L18
	movs	r2, r3
	movs	r1, #16
	movs	r0, #107
	bl	simpleserial_addcmd
	.loc 1 194 0
	ldr	r3, .L18+4
	movs	r2, r3
	movs	r1, #16
	movs	r0, #112
	bl	simpleserial_addcmd
	.loc 1 195 0
	ldr	r3, .L18+8
	movs	r2, r3
	movs	r1, #0
	movs	r0, #120
	bl	simpleserial_addcmd
.L17:
	.loc 1 197 0 discriminator 1
	bl	simpleserial_get
	b	.L17
.L19:
	.align	2
.L18:
	.word	get_key
	.word	get_pt
	.word	reset
	.cfi_endproc
.LFE4:
	.size	main, .-main
	.text
.Letext0:
	.file 2 "/usr/include/newlib/machine/_default_types.h"
	.file 3 "/usr/include/newlib/sys/_stdint.h"